target datalayout = "e-m:e-p270:32:32-p271:32:32-p272:64:64-i64:64-i128:128-f80:128-n8:16:32:64-S128"
target triple = "x86_64-pc-linux-gnu"

%struct._YR_ARENA_PAGE = type { ptr, ptr, i64, i64, ptr, ptr, ptr, ptr }

; Function Attrs: nounwind uwtable
define ptr @_yr_arena_new_page(i64 noundef %0) #0 {
  %2 = alloca ptr, align 8
  %3 = alloca i64, align 8
  %4 = alloca ptr, align 8
  store i64 %0, ptr %3, align 8
  %5 = call ptr @cli_max_malloc(i64 noundef 64)
  store ptr %5, ptr %4, align 8
  %6 = load ptr, ptr %4, align 8
  %7 = icmp eq ptr %6, null
  br i1 %7, label %8, label %9

8:                                                ; preds = %1
  store ptr null, ptr %2, align 8
  br label %35

9:                                                ; preds = %1
  %10 = load i64, ptr %3, align 8
  %11 = call ptr @cli_max_malloc(i64 noundef %10)
  %12 = load ptr, ptr %4, align 8
  %13 = getelementptr inbounds %struct._YR_ARENA_PAGE, ptr %12, i32 0, i32 1
  store ptr %11, ptr %13, align 8
  %14 = load ptr, ptr %4, align 8
  %15 = getelementptr inbounds %struct._YR_ARENA_PAGE, ptr %14, i32 0, i32 1
  %16 = load ptr, ptr %15, align 8
  %17 = icmp eq ptr %16, null
  br i1 %17, label %18, label %20

18:                                               ; preds = %9
  %19 = load ptr, ptr %4, align 8
  call void @free(ptr noundef %19) #8
  store ptr null, ptr %2, align 8
  br label %35

20:                                               ; preds = %9
  %21 = load i64, ptr %3, align 8
  %22 = load ptr, ptr %4, align 8
  %23 = getelementptr inbounds %struct._YR_ARENA_PAGE, ptr %22, i32 0, i32 2
  store i64 %21, ptr %23, align 8
  %24 = load ptr, ptr %4, align 8
  %25 = getelementptr inbounds %struct._YR_ARENA_PAGE, ptr %24, i32 0, i32 3
  store i64 0, ptr %25, align 8
  %26 = load ptr, ptr %4, align 8
  %27 = getelementptr inbounds %struct._YR_ARENA_PAGE, ptr %26, i32 0, i32 6
  store ptr null, ptr %27, align 8
  %28 = load ptr, ptr %4, align 8
  %29 = getelementptr inbounds %struct._YR_ARENA_PAGE, ptr %28, i32 0, i32 7
  store ptr null, ptr %29, align 8
  %30 = load ptr, ptr %4, align 8
  %31 = getelementptr inbounds %struct._YR_ARENA_PAGE, ptr %30, i32 0, i32 4
  store ptr null, ptr %31, align 8
  %32 = load ptr, ptr %4, align 8
  %33 = getelementptr inbounds %struct._YR_ARENA_PAGE, ptr %32, i32 0, i32 5
  store ptr null, ptr %33, align 8
  %34 = load ptr, ptr %4, align 8
  store ptr %34, ptr %2, align 8
  br label %35

35:                                               ; preds = %20, %18, %8
  %36 = load ptr, ptr %2, align 8
  ret ptr %36
}