; Function Attrs: nounwind uwtable
define ptr @_yr_arena_new_page(i64 noundef %0) local_unnamed_addr #0 {
  %2 = tail call ptr @cli_max_malloc(i64 noundef 64) #11
  %3 = icmp eq ptr %2, null
  br i1 %3, label %12, label %4

4:                                                ; preds = %1
  %5 = tail call ptr @cli_max_malloc(i64 noundef %0) #11
  %6 = getelementptr inbounds i8, ptr %2, i64 8
  store ptr %5, ptr %6, align 8
  %7 = icmp eq ptr %5, null
  br i1 %7, label %8, label %9

8:                                                ; preds = %4
  tail call void @free(ptr noundef nonnull %2) #11
  br label %12

9:                                                ; preds = %4
  %10 = getelementptr inbounds i8, ptr %2, i64 16
  store i64 %0, ptr %10, align 8
  %11 = getelementptr inbounds i8, ptr %2, i64 24
  tail call void @llvm.memset.p0.i64(ptr noundef nonnull align 8 dereferenceable(40) %11, i8 0, i64 40, i1 false)
  br label %12

12:                                               ; preds = %1, %9, %8
  %.0 = phi ptr [ null, %8 ], [ %2, %9 ], [ null, %1 ]
  ret ptr %.0
}